target datalayout = "e-m:e-p270:32:32-p271:32:32-p272:64:64-i64:64-i128:128-f80:128-n8:16:32:64-S128"
target triple = "x86_64-pc-linux-gnu"

%struct.DH_PKEY_CTX = type { i32, i32, i32, i32, i32, ptr, i32, [2 x i32], i8, ptr, ptr, ptr, i64, i64 }
%struct.evp_pkey_ctx_st = type { i32, ptr, ptr, ptr, ptr, %union.anon, %struct.anon.4, ptr, ptr, ptr, i32, i32, ptr, ptr, ptr, ptr, ptr, i8, ptr }
%union.anon = type { %struct.anon.0 }
%struct.anon.0 = type { ptr, ptr }
%struct.anon.4 = type { ptr, ptr, i64, i8 }

@.str = private unnamed_addr constant [32 x i8] c"../openssl/crypto/dh/dh_pmeth.c\00", align 1

; Function Attrs: nounwind uwtable
define internal i32 @pkey_dh_init(ptr noundef %0) #0 {
  %2 = alloca i32, align 4
  %3 = alloca ptr, align 8
  %4 = alloca ptr, align 8
  %5 = alloca i32, align 4
  store ptr %0, ptr %3, align 8, !tbaa !3
  call void @llvm.lifetime.start.p0(i64 8, ptr %4) #6
  %6 = call noalias ptr @CRYPTO_zalloc(i64 noundef 88, ptr noundef @.str, i32 noundef 58)
  store ptr %6, ptr %4, align 8, !tbaa !8
  %7 = icmp eq ptr %6, null
  br i1 %7, label %8, label %9

8:                                                ; preds = %1
  store i32 0, ptr %2, align 4
  store i32 1, ptr %5, align 4
  br label %28

9:                                                ; preds = %1
  %10 = load ptr, ptr %4, align 8, !tbaa !8
  %11 = getelementptr inbounds nuw %struct.DH_PKEY_CTX, ptr %10, i32 0, i32 0
  store i32 2048, ptr %11, align 8, !tbaa !9
  %12 = load ptr, ptr %4, align 8, !tbaa !8
  %13 = getelementptr inbounds nuw %struct.DH_PKEY_CTX, ptr %12, i32 0, i32 3
  store i32 -1, ptr %13, align 4, !tbaa !16
  %14 = load ptr, ptr %4, align 8, !tbaa !8
  %15 = getelementptr inbounds nuw %struct.DH_PKEY_CTX, ptr %14, i32 0, i32 1
  store i32 2, ptr %15, align 4, !tbaa !17
  %16 = load ptr, ptr %4, align 8, !tbaa !8
  %17 = getelementptr inbounds nuw %struct.DH_PKEY_CTX, ptr %16, i32 0, i32 8
  store i8 1, ptr %17, align 4, !tbaa !18
  %18 = load ptr, ptr %4, align 8, !tbaa !8
  %19 = load ptr, ptr %3, align 8, !tbaa !3
  %20 = getelementptr inbounds nuw %struct.evp_pkey_ctx_st, ptr %19, i32 0, i32 16
  store ptr %18, ptr %20, align 8, !tbaa !19
  %21 = load ptr, ptr %4, align 8, !tbaa !8
  %22 = getelementptr inbounds nuw %struct.DH_PKEY_CTX, ptr %21, i32 0, i32 7
  %23 = getelementptr inbounds [2 x i32], ptr %22, i64 0, i64 0
  %24 = load ptr, ptr %3, align 8, !tbaa !3
  %25 = getelementptr inbounds nuw %struct.evp_pkey_ctx_st, ptr %24, i32 0, i32 9
  store ptr %23, ptr %25, align 8, !tbaa !29
  %26 = load ptr, ptr %3, align 8, !tbaa !3
  %27 = getelementptr inbounds nuw %struct.evp_pkey_ctx_st, ptr %26, i32 0, i32 10
  store i32 2, ptr %27, align 8, !tbaa !30
  store i32 1, ptr %2, align 4
  store i32 1, ptr %5, align 4
  br label %28

28:                                               ; preds = %9, %8
  call void @llvm.lifetime.end.p0(i64 8, ptr %4) #6
  %29 = load i32, ptr %2, align 4
  ret i32 %29
}